target datalayout = "e-m:e-p270:32:32-p271:32:32-p272:64:64-i64:64-i128:128-f80:128-n8:16:32:64-S128"
target triple = "x86_64-pc-linux-gnu"

@.str = private unnamed_addr constant [33 x i8] c"../openssl/crypto/sm2/sm2_sign.c\00", align 1
@__func__.sm2_sig_gen = private unnamed_addr constant [12 x i8] c"sm2_sig_gen\00", align 1

; Function Attrs: nounwind uwtable
define internal ptr @sm2_sig_gen(ptr noundef %0, ptr noundef %1) #0 {
  %3 = alloca ptr, align 8
  %4 = alloca ptr, align 8
  %5 = alloca ptr, align 8
  %6 = alloca ptr, align 8
  %7 = alloca ptr, align 8
  %8 = alloca ptr, align 8
  %9 = alloca ptr, align 8
  %10 = alloca ptr, align 8
  %11 = alloca ptr, align 8
  %12 = alloca ptr, align 8
  %13 = alloca ptr, align 8
  %14 = alloca ptr, align 8
  %15 = alloca ptr, align 8
  %16 = alloca ptr, align 8
  %17 = alloca ptr, align 8
  store ptr %0, ptr %3, align 8, !tbaa !12
  store ptr %1, ptr %4, align 8, !tbaa !24
  call void @llvm.lifetime.start.p0(i64 8, ptr %5) #4
  %18 = load ptr, ptr %3, align 8, !tbaa !12
  %19 = call ptr @EC_KEY_get0_private_key(ptr noundef %18)
  store ptr %19, ptr %5, align 8, !tbaa !24
  call void @llvm.lifetime.start.p0(i64 8, ptr %6) #4
  %20 = load ptr, ptr %3, align 8, !tbaa !12
  %21 = call ptr @EC_KEY_get0_group(ptr noundef %20)
  store ptr %21, ptr %6, align 8, !tbaa !16
  call void @llvm.lifetime.start.p0(i64 8, ptr %7) #4
  %22 = load ptr, ptr %6, align 8, !tbaa !16
  %23 = call ptr @EC_GROUP_get0_order(ptr noundef %22)
  store ptr %23, ptr %7, align 8, !tbaa !24
  call void @llvm.lifetime.start.p0(i64 8, ptr %8) #4
  store ptr null, ptr %8, align 8, !tbaa !29
  call void @llvm.lifetime.start.p0(i64 8, ptr %9) #4
  store ptr null, ptr %9, align 8, !tbaa !18
  call void @llvm.lifetime.start.p0(i64 8, ptr %10) #4
  store ptr null, ptr %10, align 8, !tbaa !20
  call void @llvm.lifetime.start.p0(i64 8, ptr %11) #4
  store ptr null, ptr %11, align 8, !tbaa !24
  call void @llvm.lifetime.start.p0(i64 8, ptr %12) #4
  store ptr null, ptr %12, align 8, !tbaa !24
  call void @llvm.lifetime.start.p0(i64 8, ptr %13) #4
  store ptr null, ptr %13, align 8, !tbaa !24
  call void @llvm.lifetime.start.p0(i64 8, ptr %14) #4
  store ptr null, ptr %14, align 8, !tbaa !24
  call void @llvm.lifetime.start.p0(i64 8, ptr %15) #4
  store ptr null, ptr %15, align 8, !tbaa !24
  call void @llvm.lifetime.start.p0(i64 8, ptr %16) #4
  store ptr null, ptr %16, align 8, !tbaa !24
  call void @llvm.lifetime.start.p0(i64 8, ptr %17) #4
  %24 = load ptr, ptr %3, align 8, !tbaa !12
  %25 = call ptr @ossl_ec_key_get_libctx(ptr noundef %24)
  store ptr %25, ptr %17, align 8, !tbaa !31
  %26 = load ptr, ptr %6, align 8, !tbaa !16
  %27 = call ptr @EC_POINT_new(ptr noundef %26)
  store ptr %27, ptr %9, align 8, !tbaa !18
  %28 = load ptr, ptr %9, align 8, !tbaa !18
  %29 = icmp eq ptr %28, null
  br i1 %29, label %30, label %31

30:                                               ; preds = %2
  call void @ERR_new()
  call void @ERR_set_debug(ptr noundef @.str, i32 noundef 225, ptr noundef @__func__.sm2_sig_gen)
  call void (i32, i32, ptr, ...) @ERR_set_error(i32 noundef 53, i32 noundef 524304, ptr noundef null)
  br label %160

31:                                               ; preds = %2
  %32 = load ptr, ptr %17, align 8, !tbaa !31
  %33 = call ptr @BN_CTX_new_ex(ptr noundef %32)
  store ptr %33, ptr %10, align 8, !tbaa !20
  %34 = load ptr, ptr %10, align 8, !tbaa !20
  %35 = icmp eq ptr %34, null
  br i1 %35, label %36, label %37

36:                                               ; preds = %31
  call void @ERR_new()
  call void @ERR_set_debug(ptr noundef @.str, i32 noundef 230, ptr noundef @__func__.sm2_sig_gen)
  call void (i32, i32, ptr, ...) @ERR_set_error(i32 noundef 53, i32 noundef 524291, ptr noundef null)
  br label %160

37:                                               ; preds = %31
  %38 = load ptr, ptr %10, align 8, !tbaa !20
  call void @BN_CTX_start(ptr noundef %38)
  %39 = load ptr, ptr %10, align 8, !tbaa !20
  %40 = call ptr @BN_CTX_get(ptr noundef %39)
  store ptr %40, ptr %11, align 8, !tbaa !24
  %41 = load ptr, ptr %10, align 8, !tbaa !20
  %42 = call ptr @BN_CTX_get(ptr noundef %41)
  store ptr %42, ptr %12, align 8, !tbaa !24
  %43 = load ptr, ptr %10, align 8, !tbaa !20
  %44 = call ptr @BN_CTX_get(ptr noundef %43)
  store ptr %44, ptr %15, align 8, !tbaa !24
  %45 = load ptr, ptr %10, align 8, !tbaa !20
  %46 = call ptr @BN_CTX_get(ptr noundef %45)
  store ptr %46, ptr %16, align 8, !tbaa !24
  %47 = load ptr, ptr %16, align 8, !tbaa !24
  %48 = icmp eq ptr %47, null
  br i1 %48, label %49, label %50

49:                                               ; preds = %37
  call void @ERR_new()
  call void @ERR_set_debug(ptr noundef @.str, i32 noundef 240, ptr noundef @__func__.sm2_sig_gen)
  call void (i32, i32, ptr, ...) @ERR_set_error(i32 noundef 53, i32 noundef 524291, ptr noundef null)
  br label %160

50:                                               ; preds = %37
  %51 = call ptr @BN_new()
  store ptr %51, ptr %13, align 8, !tbaa !24
  %52 = call ptr @BN_new()
  store ptr %52, ptr %14, align 8, !tbaa !24
  %53 = load ptr, ptr %13, align 8, !tbaa !24
  %54 = icmp eq ptr %53, null
  br i1 %54, label %58, label %55

55:                                               ; preds = %50
  %56 = load ptr, ptr %14, align 8, !tbaa !24
  %57 = icmp eq ptr %56, null
  br i1 %57, label %58, label %59

58:                                               ; preds = %55, %50
  call void @ERR_new()
  call void @ERR_set_debug(ptr noundef @.str, i32 noundef 252, ptr noundef @__func__.sm2_sig_gen)
  call void (i32, i32, ptr, ...) @ERR_set_error(i32 noundef 53, i32 noundef 524291, ptr noundef null)
  br label %160

59:                                               ; preds = %55
  br label %60

60:                                               ; preds = %148, %107, %94, %59
  %61 = load ptr, ptr %11, align 8, !tbaa !24
  %62 = load ptr, ptr %7, align 8, !tbaa !24
  %63 = load ptr, ptr %10, align 8, !tbaa !20
  %64 = call i32 @BN_priv_rand_range_ex(ptr noundef %61, ptr noundef %62, i32 noundef 0, ptr noundef %63)
  %65 = icmp ne i32 %64, 0
  br i1 %65, label %67, label %66

66:                                               ; preds = %60
  call void @ERR_new()
  call void @ERR_set_debug(ptr noundef @.str, i32 noundef 267, ptr noundef @__func__.sm2_sig_gen)
  call void (i32, i32, ptr, ...) @ERR_set_error(i32 noundef 53, i32 noundef 786691, ptr noundef null)
  br label %160

67:                                               ; preds = %60
  %68 = load ptr, ptr %6, align 8, !tbaa !16
  %69 = load ptr, ptr %9, align 8, !tbaa !18
  %70 = load ptr, ptr %11, align 8, !tbaa !24
  %71 = load ptr, ptr %10, align 8, !tbaa !20
  %72 = call i32 @EC_POINT_mul(ptr noundef %68, ptr noundef %69, ptr noundef %70, ptr noundef null, ptr noundef null, ptr noundef %71)
  %73 = icmp ne i32 %72, 0
  br i1 %73, label %74, label %89

74:                                               ; preds = %67
  %75 = load ptr, ptr %6, align 8, !tbaa !16
  %76 = load ptr, ptr %9, align 8, !tbaa !18
  %77 = load ptr, ptr %15, align 8, !tbaa !24
  %78 = load ptr, ptr %10, align 8, !tbaa !20
  %79 = call i32 @EC_POINT_get_affine_coordinates(ptr noundef %75, ptr noundef %76, ptr noundef %77, ptr noundef null, ptr noundef %78)
  %80 = icmp ne i32 %79, 0
  br i1 %80, label %81, label %89

81:                                               ; preds = %74
  %82 = load ptr, ptr %13, align 8, !tbaa !24
  %83 = load ptr, ptr %4, align 8, !tbaa !24
  %84 = load ptr, ptr %15, align 8, !tbaa !24
  %85 = load ptr, ptr %7, align 8, !tbaa !24
  %86 = load ptr, ptr %10, align 8, !tbaa !20
  %87 = call i32 @BN_mod_add(ptr noundef %82, ptr noundef %83, ptr noundef %84, ptr noundef %85, ptr noundef %86)
  %88 = icmp ne i32 %87, 0
  br i1 %88, label %90, label %89

89:                                               ; preds = %81, %74, %67
  call void @ERR_new()
  call void @ERR_set_debug(ptr noundef @.str, i32 noundef 275, ptr noundef @__func__.sm2_sig_gen)
  call void (i32, i32, ptr, ...) @ERR_set_error(i32 noundef 53, i32 noundef 786691, ptr noundef null)
  br label %160

90:                                               ; preds = %81
  %91 = load ptr, ptr %13, align 8, !tbaa !24
  %92 = call i32 @BN_is_zero(ptr noundef %91)
  %93 = icmp ne i32 %92, 0
  br i1 %93, label %94, label %95

94:                                               ; preds = %90
  br label %60

95:                                               ; preds = %90
  %96 = load ptr, ptr %12, align 8, !tbaa !24
  %97 = load ptr, ptr %13, align 8, !tbaa !24
  %98 = load ptr, ptr %11, align 8, !tbaa !24
  %99 = call i32 @BN_add(ptr noundef %96, ptr noundef %97, ptr noundef %98)
  %100 = icmp ne i32 %99, 0
  br i1 %100, label %102, label %101

101:                                              ; preds = %95
  call void @ERR_new()
  call void @ERR_set_debug(ptr noundef @.str, i32 noundef 284, ptr noundef @__func__.sm2_sig_gen)
  call void (i32, i32, ptr, ...) @ERR_set_error(i32 noundef 53, i32 noundef 786691, ptr noundef null)
  br label %160

102:                                              ; preds = %95
  %103 = load ptr, ptr %12, align 8, !tbaa !24
  %104 = load ptr, ptr %7, align 8, !tbaa !24
  %105 = call i32 @BN_cmp(ptr noundef %103, ptr noundef %104)
  %106 = icmp eq i32 %105, 0
  br i1 %106, label %107, label %108

107:                                              ; preds = %102
  br label %60

108:                                              ; preds = %102
  %109 = load ptr, ptr %14, align 8, !tbaa !24
  %110 = load ptr, ptr %5, align 8, !tbaa !24
  %111 = call ptr @BN_value_one()
  %112 = call i32 @BN_add(ptr noundef %109, ptr noundef %110, ptr noundef %111)
  %113 = icmp ne i32 %112, 0
  br i1 %113, label %114, label %143

114:                                              ; preds = %108
  %115 = load ptr, ptr %6, align 8, !tbaa !16
  %116 = load ptr, ptr %14, align 8, !tbaa !24
  %117 = load ptr, ptr %14, align 8, !tbaa !24
  %118 = load ptr, ptr %10, align 8, !tbaa !20
  %119 = call i32 @ossl_ec_group_do_inverse_ord(ptr noundef %115, ptr noundef %116, ptr noundef %117, ptr noundef %118)
  %120 = icmp ne i32 %119, 0
  br i1 %120, label %121, label %143

121:                                              ; preds = %114
  %122 = load ptr, ptr %16, align 8, !tbaa !24
  %123 = load ptr, ptr %5, align 8, !tbaa !24
  %124 = load ptr, ptr %13, align 8, !tbaa !24
  %125 = load ptr, ptr %7, align 8, !tbaa !24
  %126 = load ptr, ptr %10, align 8, !tbaa !20
  %127 = call i32 @BN_mod_mul(ptr noundef %122, ptr noundef %123, ptr noundef %124, ptr noundef %125, ptr noundef %126)
  %128 = icmp ne i32 %127, 0
  br i1 %128, label %129, label %143

129:                                              ; preds = %121
  %130 = load ptr, ptr %16, align 8, !tbaa !24
  %131 = load ptr, ptr %11, align 8, !tbaa !24
  %132 = load ptr, ptr %16, align 8, !tbaa !24
  %133 = call i32 @BN_sub(ptr noundef %130, ptr noundef %131, ptr noundef %132)
  %134 = icmp ne i32 %133, 0
  br i1 %134, label %135, label %143

135:                                              ; preds = %129
  %136 = load ptr, ptr %14, align 8, !tbaa !24
  %137 = load ptr, ptr %14, align 8, !tbaa !24
  %138 = load ptr, ptr %16, align 8, !tbaa !24
  %139 = load ptr, ptr %7, align 8, !tbaa !24
  %140 = load ptr, ptr %10, align 8, !tbaa !20
  %141 = call i32 @BN_mod_mul(ptr noundef %136, ptr noundef %137, ptr noundef %138, ptr noundef %139, ptr noundef %140)
  %142 = icmp ne i32 %141, 0
  br i1 %142, label %144, label %143

143:                                              ; preds = %135, %129, %121, %114, %108
  call void @ERR_new()
  call void @ERR_set_debug(ptr noundef @.str, i32 noundef 296, ptr noundef @__func__.sm2_sig_gen)
  call void (i32, i32, ptr, ...) @ERR_set_error(i32 noundef 53, i32 noundef 524291, ptr noundef null)
  br label %160

144:                                              ; preds = %135
  %145 = load ptr, ptr %14, align 8, !tbaa !24
  %146 = call i32 @BN_is_zero(ptr noundef %145)
  %147 = icmp ne i32 %146, 0
  br i1 %147, label %148, label %149

148:                                              ; preds = %144
  br label %60

149:                                              ; preds = %144
  %150 = call ptr @ECDSA_SIG_new()
  store ptr %150, ptr %8, align 8, !tbaa !29
  %151 = load ptr, ptr %8, align 8, !tbaa !29
  %152 = icmp eq ptr %151, null
  br i1 %152, label %153, label %154

153:                                              ; preds = %149
  call void @ERR_new()
  call void @ERR_set_debug(ptr noundef @.str, i32 noundef 306, ptr noundef @__func__.sm2_sig_gen)
  call void (i32, i32, ptr, ...) @ERR_set_error(i32 noundef 53, i32 noundef 524330, ptr noundef null)
  br label %160

154:                                              ; preds = %149
  %155 = load ptr, ptr %8, align 8, !tbaa !29
  %156 = load ptr, ptr %13, align 8, !tbaa !24
  %157 = load ptr, ptr %14, align 8, !tbaa !24
  %158 = call i32 @ECDSA_SIG_set0(ptr noundef %155, ptr noundef %156, ptr noundef %157)
  br label %159

159:                                              ; preds = %154
  br label %160

160:                                              ; preds = %159, %153, %143, %101, %89, %66, %58, %49, %36, %30
  %161 = load ptr, ptr %8, align 8, !tbaa !29
  %162 = icmp eq ptr %161, null
  br i1 %162, label %163, label %166

163:                                              ; preds = %160
  %164 = load ptr, ptr %13, align 8, !tbaa !24
  call void @BN_free(ptr noundef %164)
  %165 = load ptr, ptr %14, align 8, !tbaa !24
  call void @BN_free(ptr noundef %165)
  br label %166

166:                                              ; preds = %163, %160
  %167 = load ptr, ptr %10, align 8, !tbaa !20
  call void @BN_CTX_free(ptr noundef %167)
  %168 = load ptr, ptr %9, align 8, !tbaa !18
  call void @EC_POINT_free(ptr noundef %168)
  %169 = load ptr, ptr %8, align 8, !tbaa !29
  call void @llvm.lifetime.end.p0(i64 8, ptr %17) #4
  call void @llvm.lifetime.end.p0(i64 8, ptr %16) #4
  call void @llvm.lifetime.end.p0(i64 8, ptr %15) #4
  call void @llvm.lifetime.end.p0(i64 8, ptr %14) #4
  call void @llvm.lifetime.end.p0(i64 8, ptr %13) #4
  call void @llvm.lifetime.end.p0(i64 8, ptr %12) #4
  call void @llvm.lifetime.end.p0(i64 8, ptr %11) #4
  call void @llvm.lifetime.end.p0(i64 8, ptr %10) #4
  call void @llvm.lifetime.end.p0(i64 8, ptr %9) #4
  call void @llvm.lifetime.end.p0(i64 8, ptr %8) #4
  call void @llvm.lifetime.end.p0(i64 8, ptr %7) #4
  call void @llvm.lifetime.end.p0(i64 8, ptr %6) #4
  call void @llvm.lifetime.end.p0(i64 8, ptr %5) #4
  ret ptr %169
}