; Function Attrs: nounwind uwtable
define internal fastcc ptr @sm2_sig_gen(ptr noundef %0, ptr noundef nonnull %1) unnamed_addr #0 {
  %3 = tail call ptr @EC_KEY_get0_private_key(ptr noundef %0) #4
  %4 = tail call ptr @EC_KEY_get0_group(ptr noundef %0) #4
  %5 = tail call ptr @EC_GROUP_get0_order(ptr noundef %4) #4
  %6 = tail call ptr @ossl_ec_key_get_libctx(ptr noundef %0) #4
  %7 = tail call ptr @EC_POINT_new(ptr noundef %4) #4
  %8 = icmp eq ptr %7, null
  br i1 %8, label %._crit_edge, label %9

9:                                                ; preds = %2
  %10 = tail call ptr @BN_CTX_new_ex(ptr noundef %6) #4
  %11 = icmp eq ptr %10, null
  br i1 %11, label %._crit_edge, label %12

12:                                               ; preds = %9
  tail call void @BN_CTX_start(ptr noundef nonnull %10) #4
  %13 = tail call ptr @BN_CTX_get(ptr noundef nonnull %10) #4
  %14 = tail call ptr @BN_CTX_get(ptr noundef nonnull %10) #4
  %15 = tail call ptr @BN_CTX_get(ptr noundef nonnull %10) #4
  %16 = tail call ptr @BN_CTX_get(ptr noundef nonnull %10) #4
  %17 = icmp eq ptr %16, null
  br i1 %17, label %._crit_edge, label %18

18:                                               ; preds = %12
  %19 = tail call ptr @BN_new() #4
  %20 = tail call ptr @BN_new() #4
  %21 = icmp eq ptr %19, null
  %22 = icmp eq ptr %20, null
  %or.cond = select i1 %21, i1 true, i1 %22
  br i1 %or.cond, label %._crit_edge, label %.preheader

.preheader:                                       ; preds = %18
  %23 = tail call i32 @BN_priv_rand_range_ex(ptr noundef %13, ptr noundef %5, i32 noundef 0, ptr noundef nonnull %10) #4
  %.not98 = icmp eq i32 %23, 0
  br i1 %.not98, label %._crit_edge, label %.lr.ph

.lr.ph:                                           ; preds = %.preheader, %.backedge
  %24 = tail call i32 @EC_POINT_mul(ptr noundef %4, ptr noundef nonnull %7, ptr noundef %13, ptr noundef null, ptr noundef null, ptr noundef nonnull %10) #4
  %.not77 = icmp eq i32 %24, 0
  br i1 %.not77, label %._crit_edge, label %25

25:                                               ; preds = %.lr.ph
  %26 = tail call i32 @EC_POINT_get_affine_coordinates(ptr noundef %4, ptr noundef nonnull %7, ptr noundef %15, ptr noundef null, ptr noundef nonnull %10) #4
  %.not78 = icmp eq i32 %26, 0
  br i1 %.not78, label %._crit_edge, label %27

27:                                               ; preds = %25
  %28 = tail call i32 @BN_mod_add(ptr noundef %19, ptr noundef nonnull %1, ptr noundef %15, ptr noundef %5, ptr noundef nonnull %10) #4
  %.not79 = icmp eq i32 %28, 0
  br i1 %.not79, label %._crit_edge, label %29

29:                                               ; preds = %27
  %30 = tail call i32 @BN_is_zero(ptr noundef %19) #4
  %.not80 = icmp eq i32 %30, 0
  br i1 %.not80, label %32, label %.backedge

.backedge:                                        ; preds = %29, %34, %48
  %31 = tail call i32 @BN_priv_rand_range_ex(ptr noundef %13, ptr noundef %5, i32 noundef 0, ptr noundef nonnull %10) #4
  %.not = icmp eq i32 %31, 0
  br i1 %.not, label %._crit_edge, label %.lr.ph

32:                                               ; preds = %29
  %33 = tail call i32 @BN_add(ptr noundef %14, ptr noundef %19, ptr noundef %13) #4
  %.not81 = icmp eq i32 %33, 0
  br i1 %.not81, label %._crit_edge, label %34

34:                                               ; preds = %32
  %35 = tail call i32 @BN_cmp(ptr noundef %14, ptr noundef %5) #4
  %36 = icmp eq i32 %35, 0
  br i1 %36, label %.backedge, label %37

37:                                               ; preds = %34
  %38 = tail call ptr @BN_value_one() #4
  %39 = tail call i32 @BN_add(ptr noundef %20, ptr noundef %3, ptr noundef %38) #4
  %.not82 = icmp eq i32 %39, 0
  br i1 %.not82, label %._crit_edge, label %40

40:                                               ; preds = %37
  %41 = tail call i32 @ossl_ec_group_do_inverse_ord(ptr noundef %4, ptr noundef %20, ptr noundef %20, ptr noundef nonnull %10) #4
  %.not83 = icmp eq i32 %41, 0
  br i1 %.not83, label %._crit_edge, label %42

42:                                               ; preds = %40
  %43 = tail call i32 @BN_mod_mul(ptr noundef nonnull %16, ptr noundef %3, ptr noundef %19, ptr noundef %5, ptr noundef nonnull %10) #4
  %.not84 = icmp eq i32 %43, 0
  br i1 %.not84, label %._crit_edge, label %44

44:                                               ; preds = %42
  %45 = tail call i32 @BN_sub(ptr noundef nonnull %16, ptr noundef %13, ptr noundef nonnull %16) #4
  %.not85 = icmp eq i32 %45, 0
  br i1 %.not85, label %._crit_edge, label %46

46:                                               ; preds = %44
  %47 = tail call i32 @BN_mod_mul(ptr noundef %20, ptr noundef %20, ptr noundef nonnull %16, ptr noundef %5, ptr noundef nonnull %10) #4
  %.not86 = icmp eq i32 %47, 0
  br i1 %.not86, label %._crit_edge, label %48

48:                                               ; preds = %46
  %49 = tail call i32 @BN_is_zero(ptr noundef %20) #4
  %.not87 = icmp eq i32 %49, 0
  br i1 %.not87, label %50, label %.backedge

50:                                               ; preds = %48
  %51 = tail call ptr @ECDSA_SIG_new() #4
  %52 = icmp eq ptr %51, null
  br i1 %52, label %._crit_edge, label %53

53:                                               ; preds = %50
  %54 = tail call i32 @ECDSA_SIG_set0(ptr noundef nonnull %51, ptr noundef %19, ptr noundef %20) #4
  br label %55

._crit_edge:                                      ; preds = %37, %40, %42, %44, %46, %32, %.lr.ph, %25, %27, %.backedge, %50, %.preheader, %18, %12, %9, %2
  %.sink99 = phi i32 [ 225, %2 ], [ 230, %9 ], [ 240, %12 ], [ 252, %18 ], [ 267, %.preheader ], [ 306, %50 ], [ 267, %.backedge ], [ 275, %27 ], [ 275, %25 ], [ 275, %.lr.ph ], [ 284, %32 ], [ 296, %46 ], [ 296, %44 ], [ 296, %42 ], [ 296, %40 ], [ 296, %37 ]
  %.sink = phi i32 [ 524304, %2 ], [ 524291, %9 ], [ 524291, %12 ], [ 524291, %18 ], [ 786691, %.preheader ], [ 524330, %50 ], [ 786691, %.backedge ], [ 786691, %27 ], [ 786691, %25 ], [ 786691, %.lr.ph ], [ 786691, %32 ], [ 524291, %46 ], [ 524291, %44 ], [ 524291, %42 ], [ 524291, %40 ], [ 524291, %37 ]
  %.071.ph = phi ptr [ null, %2 ], [ null, %9 ], [ %10, %12 ], [ %10, %18 ], [ %10, %.preheader ], [ %10, %50 ], [ %10, %.backedge ], [ %10, %27 ], [ %10, %25 ], [ %10, %.lr.ph ], [ %10, %32 ], [ %10, %46 ], [ %10, %44 ], [ %10, %42 ], [ %10, %40 ], [ %10, %37 ]
  %.070.ph = phi ptr [ null, %2 ], [ null, %9 ], [ null, %12 ], [ %19, %18 ], [ %19, %.preheader ], [ %19, %50 ], [ %19, %.backedge ], [ %19, %27 ], [ %19, %25 ], [ %19, %.lr.ph ], [ %19, %32 ], [ %19, %46 ], [ %19, %44 ], [ %19, %42 ], [ %19, %40 ], [ %19, %37 ]
  %.069.ph = phi ptr [ null, %2 ], [ null, %9 ], [ null, %12 ], [ %20, %18 ], [ %20, %.preheader ], [ %20, %50 ], [ %20, %.backedge ], [ %20, %27 ], [ %20, %25 ], [ %20, %.lr.ph ], [ %20, %32 ], [ %20, %46 ], [ %20, %44 ], [ %20, %42 ], [ %20, %40 ], [ %20, %37 ]
  tail call void @ERR_new() #4
  tail call void @ERR_set_debug(ptr noundef nonnull @.str, i32 noundef %.sink99, ptr noundef nonnull @__func__.sm2_sig_gen) #4
  tail call void (i32, i32, ptr, ...) @ERR_set_error(i32 noundef 53, i32 noundef %.sink, ptr noundef null) #4
  tail call void @BN_free(ptr noundef %.070.ph) #4
  tail call void @BN_free(ptr noundef %.069.ph) #4
  br label %55

55:                                               ; preds = %53, %._crit_edge
  %.096 = phi ptr [ null, %._crit_edge ], [ %51, %53 ]
  %.07192 = phi ptr [ %.071.ph, %._crit_edge ], [ %10, %53 ]
  tail call void @BN_CTX_free(ptr noundef %.07192) #4
  tail call void @EC_POINT_free(ptr noundef %7) #4
  ret ptr %.096
}